; ModuleID = '15/369.c'
source_filename = "15/369.c"
target datalayout = "e-m:e-p270:32:32-p271:32:32-p272:64:64-i64:64-f80:128-n8:16:32:64-S128"
target triple = "x86_64-pc-linux-gnu"

@.str = private unnamed_addr constant [3 x i8] c"%d\00", align 1
@.str.1 = private unnamed_addr constant [4 x i8] c"%d\0A\00", align 1

; Function Attrs: noinline nounwind uwtable
define dso_local i32 @main(i32 %0, i8** %1) #0 {
  %3 = alloca i32, align 4
  %4 = alloca i32, align 4
  %5 = alloca i8**, align 8
  %6 = alloca i32, align 4
  %7 = alloca i32, align 4
  %8 = alloca i32, align 4
  %9 = alloca i32, align 4
  %10 = alloca i32, align 4
  %11 = alloca i32, align 4
  %12 = alloca i32, align 4
  %13 = alloca [1000 x [1000 x i32]], align 16
  %14 = alloca i32, align 4
  store i32 0, i32* %3, align 4
  store i32 %0, i32* %4, align 4
  store i8** %1, i8*** %5, align 8
  %15 = call i32 (i8*, ...) @__isoc99_scanf(i8* getelementptr inbounds ([3 x i8], [3 x i8]* @.str, i64 0, i64 0), i32* %6)
  store i32 0, i32* %7, align 4
  br label %16

16:                                               ; preds = %37, %2
  %17 = load i32, i32* %7, align 4
  %18 = load i32, i32* %6, align 4
  %19 = icmp slt i32 %17, %18
  br i1 %19, label %20, label %40

20:                                               ; preds = %16
  store i32 0, i32* %8, align 4
  br label %21

21:                                               ; preds = %33, %20
  %22 = load i32, i32* %8, align 4
  %23 = load i32, i32* %6, align 4
  %24 = icmp slt i32 %22, %23
  br i1 %24, label %25, label %36

25:                                               ; preds = %21
  %26 = load i32, i32* %7, align 4
  %27 = sext i32 %26 to i64
  %28 = getelementptr inbounds [1000 x [1000 x i32]], [1000 x [1000 x i32]]* %13, i64 0, i64 %27
  %29 = load i32, i32* %8, align 4
  %30 = sext i32 %29 to i64
  %31 = getelementptr inbounds [1000 x i32], [1000 x i32]* %28, i64 0, i64 %30
  %32 = call i32 (i8*, ...) @__isoc99_scanf(i8* getelementptr inbounds ([3 x i8], [3 x i8]* @.str, i64 0, i64 0), i32* %31)
  br label %33

33:                                               ; preds = %25
  %34 = load i32, i32* %8, align 4
  %35 = add nsw i32 %34, 1
  store i32 %35, i32* %8, align 4
  br label %21

36:                                               ; preds = %21
  br label %37

37:                                               ; preds = %36
  %38 = load i32, i32* %7, align 4
  %39 = add nsw i32 %38, 1
  store i32 %39, i32* %7, align 4
  br label %16

40:                                               ; preds = %16
  store i32 0, i32* %7, align 4
  br label %41

41:                                               ; preds = %79, %40
  %42 = load i32, i32* %7, align 4
  %43 = load i32, i32* %6, align 4
  %44 = sdiv i32 %43, 2
  %45 = icmp slt i32 %42, %44
  br i1 %45, label %46, label %82

46:                                               ; preds = %41
  store i32 0, i32* %8, align 4
  br label %47

47:                                               ; preds = %65, %46
  %48 = load i32, i32* %8, align 4
  %49 = load i32, i32* %6, align 4
  %50 = sdiv i32 %49, 2
  %51 = icmp slt i32 %48, %50
  br i1 %51, label %52, label %68

52:                                               ; preds = %47
  %53 = load i32, i32* %7, align 4
  %54 = sext i32 %53 to i64
  %55 = getelementptr inbounds [1000 x [1000 x i32]], [1000 x [1000 x i32]]* %13, i64 0, i64 %54
  %56 = load i32, i32* %8, align 4
  %57 = sext i32 %56 to i64
  %58 = getelementptr inbounds [1000 x i32], [1000 x i32]* %55, i64 0, i64 %57
  %59 = load i32, i32* %58, align 4
  %60 = icmp eq i32 %59, 0
  br i1 %60, label %61, label %64

61:                                               ; preds = %52
  %62 = load i32, i32* %7, align 4
  store i32 %62, i32* %9, align 4
  %63 = load i32, i32* %8, align 4
  store i32 %63, i32* %10, align 4
  br label %68

64:                                               ; preds = %52
  br label %65

65:                                               ; preds = %64
  %66 = load i32, i32* %8, align 4
  %67 = add nsw i32 %66, 1
  store i32 %67, i32* %8, align 4
  br label %47

68:                                               ; preds = %61, %47
  %69 = load i32, i32* %7, align 4
  %70 = sext i32 %69 to i64
  %71 = getelementptr inbounds [1000 x [1000 x i32]], [1000 x [1000 x i32]]* %13, i64 0, i64 %70
  %72 = load i32, i32* %8, align 4
  %73 = sext i32 %72 to i64
  %74 = getelementptr inbounds [1000 x i32], [1000 x i32]* %71, i64 0, i64 %73
  %75 = load i32, i32* %74, align 4
  %76 = icmp eq i32 %75, 0
  br i1 %76, label %77, label %78

77:                                               ; preds = %68
  br label %82

78:                                               ; preds = %68
  br label %79

79:                                               ; preds = %78
  %80 = load i32, i32* %7, align 4
  %81 = add nsw i32 %80, 1
  store i32 %81, i32* %7, align 4
  br label %41

82:                                               ; preds = %77, %41
  store i32 0, i32* %7, align 4
  br label %83

83:                                               ; preds = %117, %82
  %84 = load i32, i32* %7, align 4
  %85 = load i32, i32* %6, align 4
  %86 = icmp slt i32 %84, %85
  br i1 %86, label %87, label %120

87:                                               ; preds = %83
  store i32 0, i32* %8, align 4
  br label %88

88:                                               ; preds = %113, %87
  %89 = load i32, i32* %8, align 4
  %90 = load i32, i32* %6, align 4
  %91 = icmp slt i32 %89, %90
  br i1 %91, label %92, label %116

92:                                               ; preds = %88
  %93 = load i32, i32* %7, align 4
  %94 = sext i32 %93 to i64
  %95 = getelementptr inbounds [1000 x [1000 x i32]], [1000 x [1000 x i32]]* %13, i64 0, i64 %94
  %96 = load i32, i32* %8, align 4
  %97 = sext i32 %96 to i64
  %98 = getelementptr inbounds [1000 x i32], [1000 x i32]* %95, i64 0, i64 %97
  %99 = load i32, i32* %98, align 4
  %100 = icmp eq i32 %99, 0
  br i1 %100, label %101, label %112

101:                                              ; preds = %92
  %102 = load i32, i32* %7, align 4
  %103 = load i32, i32* %9, align 4
  %104 = icmp sgt i32 %102, %103
  br i1 %104, label %105, label %112

105:                                              ; preds = %101
  %106 = load i32, i32* %8, align 4
  %107 = load i32, i32* %10, align 4
  %108 = icmp sgt i32 %106, %107
  br i1 %108, label %109, label %112

109:                                              ; preds = %105
  %110 = load i32, i32* %7, align 4
  store i32 %110, i32* %11, align 4
  %111 = load i32, i32* %8, align 4
  store i32 %111, i32* %12, align 4
  br label %112

112:                                              ; preds = %109, %105, %101, %92
  br label %113

113:                                              ; preds = %112
  %114 = load i32, i32* %8, align 4
  %115 = add nsw i32 %114, 1
  store i32 %115, i32* %8, align 4
  br label %88

116:                                              ; preds = %88
  br label %117

117:                                              ; preds = %116
  %118 = load i32, i32* %7, align 4
  %119 = add nsw i32 %118, 1
  store i32 %119, i32* %7, align 4
  br label %83

120:                                              ; preds = %83
  %121 = load i32, i32* %11, align 4
  %122 = load i32, i32* %9, align 4
  %123 = sub nsw i32 %121, %122
  %124 = add nsw i32 %123, 1
  %125 = load i32, i32* %12, align 4
  %126 = load i32, i32* %10, align 4
  %127 = sub nsw i32 %125, %126
  %128 = add nsw i32 %127, 1
  %129 = mul nsw i32 %124, %128
  %130 = load i32, i32* %11, align 4
  %131 = load i32, i32* %12, align 4
  %132 = add nsw i32 %130, %131
  %133 = load i32, i32* %9, align 4
  %134 = sub nsw i32 %132, %133
  %135 = load i32, i32* %10, align 4
  %136 = sub nsw i32 %134, %135
  %137 = mul nsw i32 2, %136
  %138 = sub nsw i32 %129, %137
  store i32 %138, i32* %14, align 4
  %139 = load i32, i32* %14, align 4
  %140 = call i32 (i8*, ...) @printf(i8* getelementptr inbounds ([4 x i8], [4 x i8]* @.str.1, i64 0, i64 0), i32 %139)
  ret i32 0
}

declare dso_local i32 @__isoc99_scanf(i8*, ...) #1

declare dso_local i32 @printf(i8*, ...) #1


!llvm.module.flags = !{!0}
!llvm.ident = !{!1}

!0 = !{i32 1, !"wchar_size", i32 4}
!1 = !{!"clang version 10.0.0-4ubuntu1 "}
